BL51 BANKED LINKER/LOCATER V6.22.2.0                                                    10/03/2022  12:32:06  PAGE 1


BL51 BANKED LINKER/LOCATER V6.22.2.0, INVOKED BY:
D:\KEIL_V5\C51\BIN\BL51.EXE .\Objects\main.obj, .\Objects\LCD1602.obj, .\Objects\Delay.obj TO .\Objects\test1 PRINT (.\L
>> istings\test1.m51) RAMSIZE (256)


MEMORY MODEL: SMALL


INPUT MODULES INCLUDED:
  .\Objects\main.obj (MAIN)
  .\Objects\LCD1602.obj (LCD1602)
  .\Objects\Delay.obj (DELAY)
  D:\KEIL_V5\C51\LIB\C51S.LIB (?C_STARTUP)
  D:\KEIL_V5\C51\LIB\C51S.LIB (?C?CLDOPTR)
  D:\KEIL_V5\C51\LIB\C51S.LIB (?C?IMUL)
  D:\KEIL_V5\C51\LIB\C51S.LIB (?C?UIDIV)
  D:\KEIL_V5\C51\LIB\C51S.LIB (?C_INIT)


LINK MAP OF MODULE:  .\Objects\test1 (MAIN)


            TYPE    BASE      LENGTH    RELOCATION   SEGMENT NAME
            -----------------------------------------------------

            * * * * * * *   D A T A   M E M O R Y   * * * * * * *
            REG     0000H     0008H     ABSOLUTE     "REG BANK 0"
            DATA    0008H     0009H     UNIT         _DATA_GROUP_
            DATA    0011H     0007H     UNIT         ?DT?_LCD_SHOWSIGNEDNUM?LCD1602
            DATA    0018H     0005H     UNIT         ?DT?_LCD_SHOWHEXNUM?LCD1602
            DATA    001DH     0005H     UNIT         ?DT?_LCD_SHOWBINNUM?LCD1602
            DATA    0022H     0003H     UNIT         ?DT?_LCD_SHOWSTRING?LCD1602
            DATA    0025H     0002H     UNIT         ?DT?MAIN
            IDATA   0027H     0001H     UNIT         ?STACK

            * * * * * * *   C O D E   M E M O R Y   * * * * * * *
            CODE    0000H     0003H     ABSOLUTE     
            CODE    0003H     0094H     UNIT         ?C?LIB_CODE
            CODE    0097H     008CH     UNIT         ?C_C51STARTUP
            CODE    0123H     004BH     UNIT         ?PR?_LCD_SHOWHEXNUM?LCD1602
            CODE    016EH     004AH     UNIT         ?PR?_LCD_SHOWSIGNEDNUM?LCD1602
            CODE    01B8H     003DH     UNIT         ?PR?_LCD_SHOWBINNUM?LCD1602
            CODE    01F5H     0031H     UNIT         ?PR?_LCD_POW?LCD1602
            CODE    0226H     0024H     UNIT         ?PR?_LCD_SHOWNUM?LCD1602
            CODE    024AH     0023H     UNIT         ?PR?_LCD_SHOWSTRING?LCD1602
            CODE    026DH     0021H     UNIT         ?PR?MAIN?MAIN
            CODE    028EH     001EH     UNIT         ?PR?_LCD_WRITEDATA?LCD1602
            CODE    02ACH     001EH     UNIT         ?PR?_LCD_SETCURSOR?LCD1602
            CODE    02CAH     0014H     UNIT         ?PR?LCD_INIT?LCD1602
            CODE    02DEH     0014H     UNIT         ?PR?_DELAY?DELAY
            CODE    02F2H     000FH     UNIT         ?PR?LCD_DELAY?LCD1602
            CODE    0301H     000AH     UNIT         ?PR?_LCD_WRITECOMMAND?LCD1602
            CODE    030BH     000AH     UNIT         ?PR?_LCD_SHOWCHAR?LCD1602
            CODE    0315H     0005H     UNIT         ?C_INITSEG



OVERLAY MAP OF MODULE:   .\Objects\test1 (MAIN)
BL51 BANKED LINKER/LOCATER V6.22.2.0                                                  10/03/2022  12:32:06  PAGE 2




SEGMENT                                  DATA_GROUP 
  +--> CALLED SEGMENT                  START    LENGTH
------------------------------------------------------
?C_C51STARTUP                          -----    -----
  +--> ?PR?MAIN?MAIN
  +--> ?C_INITSEG

?PR?MAIN?MAIN                          -----    -----
  +--> ?PR?LCD_INIT?LCD1602
  +--> ?PR?_LCD_SHOWNUM?LCD1602
  +--> ?PR?_DELAY?DELAY

?PR?LCD_INIT?LCD1602                   -----    -----
  +--> ?PR?_LCD_WRITECOMMAND?LCD1602

?PR?_LCD_WRITECOMMAND?LCD1602          -----    -----
  +--> ?PR?LCD_DELAY?LCD1602

?PR?_LCD_SHOWNUM?LCD1602               0008H    0005H
  +--> ?PR?_LCD_SETCURSOR?LCD1602
  +--> ?PR?_LCD_POW?LCD1602
  +--> ?PR?_LCD_WRITEDATA?LCD1602

?PR?_LCD_SETCURSOR?LCD1602             -----    -----
  +--> ?PR?_LCD_WRITECOMMAND?LCD1602

?PR?_LCD_POW?LCD1602                   000DH    0004H

?PR?_LCD_WRITEDATA?LCD1602             -----    -----
  +--> ?PR?LCD_DELAY?LCD1602



SYMBOL TABLE OF MODULE:  .\Objects\test1 (MAIN)

  VALUE           TYPE          NAME
  ----------------------------------

  -------         MODULE        MAIN
  C:0000H         SYMBOL        _ICE_DUMMY_
  C:026DH         PUBLIC        main
  D:0025H         PUBLIC        a
  -------         PROC          MAIN
  C:026DH         LINE#         7
  C:026DH         LINE#         8
  C:0270H         LINE#         14
  C:0270H         LINE#         15
  C:0278H         LINE#         16
  C:0285H         LINE#         17
  C:028CH         LINE#         18
  -------         ENDPROC       MAIN
  -------         ENDMOD        MAIN

  -------         MODULE        LCD1602
  C:0000H         SYMBOL        _ICE_DUMMY_
BL51 BANKED LINKER/LOCATER V6.22.2.0                                                  10/03/2022  12:32:06  PAGE 3


  D:0080H         PUBLIC        P0
  D:00A0H         PUBLIC        P2
  C:0301H         PUBLIC        _LCD_WriteCommand
  C:0226H         PUBLIC        _LCD_ShowNum
  C:01B8H         PUBLIC        _LCD_ShowBinNum
  C:02F8H         PUBLIC        LCD_Delay
  C:0123H         PUBLIC        _LCD_ShowHexNum
  C:02A2H         PUBLIC        _LCD_WriteData
  B:00A0H.7       PUBLIC        LCD_EN
  C:02CAH         PUBLIC        LCD_Init
  C:024AH         PUBLIC        _LCD_ShowString
  C:030BH         PUBLIC        _LCD_ShowChar
  B:00A0H.6       PUBLIC        LCD_RS
  B:00A0H.5       PUBLIC        LCD_RW
  C:02ACH         PUBLIC        _LCD_SetCursor
  C:016EH         PUBLIC        _LCD_ShowSignedNum
  C:01FFH         PUBLIC        _LCD_Pow
  -------         PROC          L?0047
  -------         ENDPROC       L?0047
  -------         PROC          LCD_DELAY
  -------         DO            
  D:0007H         SYMBOL        i
  D:0006H         SYMBOL        j
  -------         ENDDO         
  C:02F8H         LINE#         15
  C:02F8H         LINE#         16
  C:02F8H         LINE#         19
  C:02FAH         LINE#         20
  C:02FCH         LINE#         22
  C:02FCH         LINE#         23
  C:02FEH         LINE#         24
  C:0300H         LINE#         25
  -------         ENDPROC       LCD_DELAY
  -------         PROC          _LCD_WRITECOMMAND
  D:0007H         SYMBOL        Command
  C:0301H         LINE#         32
  C:0301H         LINE#         33
  C:0301H         LINE#         34
  C:0303H         LINE#         35
  C:0303H         LINE#         36
  C:0303H         LINE#         37
  C:0303H         LINE#         38
  C:0306H         LINE#         39
  C:0308H         LINE#         40
  -------         ENDPROC       _LCD_WRITECOMMAND
  -------         PROC          L?0045
  -------         ENDPROC       L?0045
  -------         PROC          _LCD_WRITEDATA
  D:0007H         SYMBOL        Data
  C:02A2H         LINE#         48
  C:02A2H         LINE#         49
  C:02A2H         LINE#         50
  C:02A4H         LINE#         51
  C:02A4H         LINE#         52
  C:02A4H         LINE#         53
  C:02A4H         LINE#         54
  C:02A7H         LINE#         55
BL51 BANKED LINKER/LOCATER V6.22.2.0                                                  10/03/2022  12:32:06  PAGE 4


  C:02A9H         LINE#         56
  -------         ENDPROC       _LCD_WRITEDATA
  -------         PROC          _LCD_SETCURSOR
  D:0006H         SYMBOL        Line
  D:0005H         SYMBOL        Column
  C:02ACH         LINE#         65
  C:02AEH         LINE#         66
  C:02AEH         LINE#         67
  C:02B6H         LINE#         68
  C:02B6H         LINE#         69
  C:02B8H         LINE#         70
  C:02BAH         LINE#         71
  C:02C0H         LINE#         72
  C:02C0H         LINE#         73
  C:02C9H         LINE#         74
  C:02C9H         LINE#         75
  -------         ENDPROC       _LCD_SETCURSOR
  -------         PROC          LCD_INIT
  C:02CAH         LINE#         82
  C:02CAH         LINE#         83
  C:02CAH         LINE#         84
  C:02CFH         LINE#         85
  C:02D4H         LINE#         86
  C:02D9H         LINE#         87
  -------         ENDPROC       LCD_INIT
  -------         PROC          _LCD_SHOWCHAR
  D:0006H         SYMBOL        Line
  D:0005H         SYMBOL        Column
  D:0004H         SYMBOL        Char
  C:030BH         LINE#         97
  C:030DH         LINE#         98
  C:030DH         LINE#         99
  C:0310H         LINE#         100
  -------         ENDPROC       _LCD_SHOWCHAR
  -------         PROC          _LCD_SHOWSTRING
  D:0007H         SYMBOL        Line
  D:0005H         SYMBOL        Column
  D:0022H         SYMBOL        String
  -------         DO            
  D:0005H         SYMBOL        i
  -------         ENDDO         
  C:024AH         LINE#         110
  C:0250H         LINE#         111
  C:0250H         LINE#         113
  C:0253H         LINE#         114
  C:0266H         LINE#         115
  C:0266H         LINE#         116
  C:0269H         LINE#         117
  C:026CH         LINE#         118
  -------         ENDPROC       _LCD_SHOWSTRING
  -------         PROC          L?0046
  -------         ENDPROC       L?0046
  -------         PROC          _LCD_POW
  D:000DH         SYMBOL        X
  D:000FH         SYMBOL        Y
  -------         DO            
  D:0003H         SYMBOL        i
BL51 BANKED LINKER/LOCATER V6.22.2.0                                                  10/03/2022  12:32:06  PAGE 5


  D:0006H         SYMBOL        Result
  -------         ENDDO         
  C:01FFH         LINE#         123
  C:0207H         LINE#         124
  C:0207H         LINE#         126
  C:020BH         LINE#         127
  C:021BH         LINE#         128
  C:021BH         LINE#         129
  C:0222H         LINE#         130
  C:0225H         LINE#         131
  C:0225H         LINE#         132
  -------         ENDPROC       _LCD_POW
  -------         PROC          _LCD_SHOWNUM
  D:0007H         SYMBOL        Line
  D:0005H         SYMBOL        Column
  D:000AH         SYMBOL        Number
  D:000CH         SYMBOL        Length
  -------         DO            
  D:0002H         SYMBOL        i
  -------         ENDDO         
  C:0226H         LINE#         142
  C:022AH         LINE#         143
  C:022AH         LINE#         145
  C:022DH         LINE#         146
  C:023CH         LINE#         147
  C:023CH         LINE#         148
  C:0246H         LINE#         149
  C:0249H         LINE#         150
  -------         ENDPROC       _LCD_SHOWNUM
  -------         PROC          _LCD_SHOWSIGNEDNUM
  D:0007H         SYMBOL        Line
  D:0005H         SYMBOL        Column
  D:0082H         SYMBOL        Number
  D:0015H         SYMBOL        Length
  -------         DO            
  D:0002H         SYMBOL        i
  D:0016H         SYMBOL        Number1
  -------         ENDDO         
  C:016EH         LINE#         160
  C:0172H         LINE#         161
  C:0172H         LINE#         164
  C:0175H         LINE#         165
  C:017EH         LINE#         166
  C:017EH         LINE#         167
  C:0183H         LINE#         168
  C:0189H         LINE#         169
  C:018BH         LINE#         171
  C:018BH         LINE#         172
  C:0190H         LINE#         173
  C:019BH         LINE#         174
  C:019BH         LINE#         175
  C:01AAH         LINE#         176
  C:01AAH         LINE#         177
  C:01B4H         LINE#         178
  C:01B7H         LINE#         179
  -------         ENDPROC       _LCD_SHOWSIGNEDNUM
  -------         PROC          _LCD_SHOWHEXNUM
BL51 BANKED LINKER/LOCATER V6.22.2.0                                                  10/03/2022  12:32:06  PAGE 6


  D:0007H         SYMBOL        Line
  D:0005H         SYMBOL        Column
  D:001AH         SYMBOL        Number
  D:001CH         SYMBOL        Length
  -------         DO            
  D:0002H         SYMBOL        i
  D:0006H         SYMBOL        SingleNumber
  -------         ENDDO         
  C:0123H         LINE#         189
  C:0127H         LINE#         190
  C:0127H         LINE#         192
  C:012AH         LINE#         193
  C:0136H         LINE#         194
  C:0136H         LINE#         195
  C:0156H         LINE#         196
  C:0160H         LINE#         197
  C:0160H         LINE#         198
  C:0162H         LINE#         199
  C:0164H         LINE#         201
  C:0164H         LINE#         202
  C:016AH         LINE#         203
  C:016AH         LINE#         204
  C:016DH         LINE#         205
  -------         ENDPROC       _LCD_SHOWHEXNUM
  -------         PROC          _LCD_SHOWBINNUM
  D:0007H         SYMBOL        Line
  D:0005H         SYMBOL        Column
  D:001FH         SYMBOL        Number
  D:0021H         SYMBOL        Length
  -------         DO            
  D:0002H         SYMBOL        i
  -------         ENDDO         
  C:01B8H         LINE#         215
  C:01BCH         LINE#         216
  C:01BCH         LINE#         218
  C:01BFH         LINE#         219
  C:01CEH         LINE#         220
  C:01CEH         LINE#         221
  C:01F1H         LINE#         222
  C:01F4H         LINE#         223
  -------         ENDPROC       _LCD_SHOWBINNUM
  -------         ENDMOD        LCD1602

  -------         MODULE        DELAY
  C:0000H         SYMBOL        _ICE_DUMMY_
  C:02DEH         PUBLIC        _Delay
  -------         PROC          _DELAY
  D:0006H         SYMBOL        t
  -------         DO            
  D:0005H         SYMBOL        i
  D:0004H         SYMBOL        j
  -------         ENDDO         
  C:02DEH         LINE#         2
  C:02DEH         LINE#         3
  C:02DEH         LINE#         6
  C:02E2H         LINE#         7
  C:02E4H         LINE#         8
BL51 BANKED LINKER/LOCATER V6.22.2.0                                                  10/03/2022  12:32:06  PAGE 7


  C:02E6H         LINE#         10
  C:02E6H         LINE#         11
  C:02E8H         LINE#         12
  C:02EAH         LINE#         13
  C:02EFH         LINE#         14
  C:02F1H         LINE#         17
  -------         ENDPROC       _DELAY
  -------         ENDMOD        DELAY

  -------         MODULE        ?C?CLDOPTR
  C:0003H         PUBLIC        ?C?CLDOPTR
  -------         ENDMOD        ?C?CLDOPTR

  -------         MODULE        ?C?IMUL
  C:0030H         PUBLIC        ?C?IMUL
  -------         ENDMOD        ?C?IMUL

  -------         MODULE        ?C?UIDIV
  C:0042H         PUBLIC        ?C?UIDIV
  -------         ENDMOD        ?C?UIDIV

*** WARNING L16: UNCALLED SEGMENT, IGNORED FOR OVERLAY PROCESS
    SEGMENT: ?PR?_LCD_SHOWCHAR?LCD1602

*** WARNING L16: UNCALLED SEGMENT, IGNORED FOR OVERLAY PROCESS
    SEGMENT: ?PR?_LCD_SHOWSTRING?LCD1602

*** WARNING L16: UNCALLED SEGMENT, IGNORED FOR OVERLAY PROCESS
    SEGMENT: ?PR?_LCD_SHOWSIGNEDNUM?LCD1602

*** WARNING L16: UNCALLED SEGMENT, IGNORED FOR OVERLAY PROCESS
    SEGMENT: ?PR?_LCD_SHOWHEXNUM?LCD1602

*** WARNING L16: UNCALLED SEGMENT, IGNORED FOR OVERLAY PROCESS
    SEGMENT: ?PR?_LCD_SHOWBINNUM?LCD1602

Program Size: data=40.0 xdata=0 code=794
LINK/LOCATE RUN COMPLETE.  5 WARNING(S),  0 ERROR(S)
